; Function Attrs: mustprogress nofree norecurse nosync nounwind willreturn memory(read, inaccessiblemem: none) uwtable
define i64 @_ZNK2cv16MatConstIterator3posEv(ptr noundef nonnull readonly align 8 captures(none) dereferenceable(40) %0) local_unnamed_addr #8 align 2 {
  %2 = load ptr, ptr %0, align 8, !tbaa !57
  %.not = icmp eq ptr %2, null
  br i1 %.not, label %23, label %3

3:                                                ; preds = %1
  %4 = getelementptr inbounds nuw i8, ptr %0, i64 16
  %5 = load ptr, ptr %4, align 8, !tbaa !59
  %6 = getelementptr inbounds nuw i8, ptr %2, i64 16
  %7 = load ptr, ptr %6, align 8, !tbaa !27
  %8 = getelementptr inbounds nuw i8, ptr %2, i64 72
  %9 = load ptr, ptr %8, align 8, !tbaa !60
  %10 = ptrtoint ptr %5 to i64
  %11 = ptrtoint ptr %7 to i64
  %12 = sub i64 %10, %11
  %13 = load i64, ptr %9, align 8, !tbaa !42
  %14 = udiv i64 %12, %13
  %sext = shl i64 %14, 32
  %15 = ashr exact i64 %sext, 32
  %16 = mul i64 %15, %13
  %17 = sub i64 %12, %16
  %18 = getelementptr inbounds nuw i8, ptr %0, i64 8
  %19 = load i64, ptr %18, align 8, !tbaa !61
  %20 = udiv i64 %17, %19
  %21 = and i64 %20, 4294967295
  %22 = or disjoint i64 %21, %sext
  br label %23

23:                                               ; preds = %1, %3
  %.sroa.0.0.insert.insert = phi i64 [ %22, %3 ], [ 0, %1 ]
  ret i64 %.sroa.0.0.insert.insert
}